; Function Attrs: alwaysinline norecurse nounwind uwtable
define internal void @_ZNK4ncnn15Packing_x86_avx7forwardERKNS_3MatERS1_RKNS_6OptionE.omp_outlined.8(ptr noalias noundef readonly captures(none) %0, ptr noalias readnone captures(none) %1, ptr noundef nonnull readonly align 4 captures(none) dereferenceable(4) %2, ptr noundef nonnull readonly align 8 captures(none) dereferenceable(72) %3, ptr noundef nonnull readonly align 8 captures(none) dereferenceable(72) %4, ptr noundef nonnull readonly align 4 captures(none) dereferenceable(4) %5) #8 personality ptr @__gxx_personality_v0 {
  %7 = alloca i32, align 4
  %8 = alloca i32, align 4
  %9 = alloca i32, align 4
  %10 = alloca i32, align 4
  %11 = load i32, ptr %2, align 4, !tbaa !42
  %12 = icmp sgt i32 %11, 0
  br i1 %12, label %13, label %99

13:                                               ; preds = %6
  %14 = add nsw i32 %11, -1
  call void @llvm.lifetime.start.p0(i64 4, ptr nonnull %7) #6
  store i32 0, ptr %7, align 4, !tbaa !42
  call void @llvm.lifetime.start.p0(i64 4, ptr nonnull %8) #6
  store i32 %14, ptr %8, align 4, !tbaa !42
  call void @llvm.lifetime.start.p0(i64 4, ptr nonnull %9) #6
  store i32 1, ptr %9, align 4, !tbaa !42
  call void @llvm.lifetime.start.p0(i64 4, ptr nonnull %10) #6
  store i32 0, ptr %10, align 4, !tbaa !42
  %15 = load i32, ptr %0, align 4, !tbaa !42
  call void @__kmpc_for_static_init_4(ptr nonnull @1, i32 %15, i32 34, ptr nonnull %10, ptr nonnull %7, ptr nonnull %8, ptr nonnull %9, i32 1, i32 1)
  %16 = load i32, ptr %8, align 4, !tbaa !42
  %17 = call i32 @llvm.smin.i32(i32 %16, i32 %14)
  store i32 %17, ptr %8, align 4, !tbaa !42
  %18 = load i32, ptr %7, align 4, !tbaa !42
  %.not74 = icmp sgt i32 %18, %17
  br i1 %.not74, label %._crit_edge78, label %.lr.ph77

.lr.ph77:                                         ; preds = %13
  %19 = load ptr, ptr %3, align 8, !tbaa !33
  %20 = getelementptr inbounds nuw i8, ptr %3, i64 44
  %21 = load i32, ptr %20, align 4, !tbaa !38
  %22 = sext i32 %21 to i64
  %23 = getelementptr inbounds nuw i8, ptr %3, i64 16
  %24 = load i64, ptr %23, align 8, !tbaa !13
  %25 = mul i64 %24, %22
  %26 = load ptr, ptr %4, align 8, !tbaa !33
  %27 = getelementptr inbounds nuw i8, ptr %4, i64 44
  %28 = load i32, ptr %27, align 4, !tbaa !38
  %29 = sext i32 %28 to i64
  %30 = getelementptr inbounds nuw i8, ptr %4, i64 16
  %31 = load i64, ptr %30, align 8, !tbaa !13
  %factor.op.mul = mul i64 %31, %29
  %32 = load i32, ptr %5, align 4, !tbaa !42
  %33 = icmp sgt i32 %32, 0
  br i1 %33, label %.lr.ph.us.preheader, label %._crit_edge78

.lr.ph.us.preheader:                              ; preds = %.lr.ph77
  %34 = sext i32 %18 to i64
  %35 = add nsw i32 %17, 1
  br label %.lr.ph.us

.lr.ph.us:                                        ; preds = %.lr.ph.us.preheader, %._crit_edge.us
  %indvars.iv = phi i64 [ %34, %.lr.ph.us.preheader ], [ %indvars.iv.next, %._crit_edge.us ]
  %36 = shl nsw i64 %indvars.iv, 2
  %37 = mul i64 %25, %36
  %38 = getelementptr inbounds nuw i8, ptr %19, i64 %37
  %39 = or disjoint i64 %36, 1
  %40 = mul i64 %25, %39
  %41 = getelementptr inbounds nuw i8, ptr %19, i64 %40
  %42 = or disjoint i64 %36, 2
  %43 = mul i64 %25, %42
  %44 = getelementptr inbounds nuw i8, ptr %19, i64 %43
  %45 = or disjoint i64 %36, 3
  %46 = mul i64 %25, %45
  %47 = getelementptr inbounds nuw i8, ptr %19, i64 %46
  %.reass.us = mul i64 %factor.op.mul, %indvars.iv
  %48 = getelementptr inbounds nuw i8, ptr %26, i64 %.reass.us
  br label %49

49:                                               ; preds = %.lr.ph.us, %49
  %.073.us = phi i32 [ 0, %.lr.ph.us ], [ %98, %49 ]
  %.06272.us = phi ptr [ %48, %.lr.ph.us ], [ %97, %49 ]
  %.06371.us = phi ptr [ %47, %.lr.ph.us ], [ %96, %49 ]
  %.06470.us = phi ptr [ %44, %.lr.ph.us ], [ %95, %49 ]
  %.06569.us = phi ptr [ %41, %.lr.ph.us ], [ %94, %49 ]
  %.06668.us = phi ptr [ %38, %.lr.ph.us ], [ %93, %49 ]
  %50 = load float, ptr %.06668.us, align 4, !tbaa !50
  store float %50, ptr %.06272.us, align 4, !tbaa !50
  %51 = getelementptr inbounds nuw i8, ptr %.06668.us, i64 4
  %52 = load float, ptr %51, align 4, !tbaa !50
  %53 = getelementptr inbounds nuw i8, ptr %.06272.us, i64 4
  store float %52, ptr %53, align 4, !tbaa !50
  %54 = getelementptr inbounds nuw i8, ptr %.06668.us, i64 8
  %55 = load float, ptr %54, align 4, !tbaa !50
  %56 = getelementptr inbounds nuw i8, ptr %.06272.us, i64 8
  store float %55, ptr %56, align 4, !tbaa !50
  %57 = getelementptr inbounds nuw i8, ptr %.06668.us, i64 12
  %58 = load float, ptr %57, align 4, !tbaa !50
  %59 = getelementptr inbounds nuw i8, ptr %.06272.us, i64 12
  store float %58, ptr %59, align 4, !tbaa !50
  %60 = load float, ptr %.06569.us, align 4, !tbaa !50
  %61 = getelementptr inbounds nuw i8, ptr %.06272.us, i64 16
  store float %60, ptr %61, align 4, !tbaa !50
  %62 = getelementptr inbounds nuw i8, ptr %.06569.us, i64 4
  %63 = load float, ptr %62, align 4, !tbaa !50
  %64 = getelementptr inbounds nuw i8, ptr %.06272.us, i64 20
  store float %63, ptr %64, align 4, !tbaa !50
  %65 = getelementptr inbounds nuw i8, ptr %.06569.us, i64 8
  %66 = load float, ptr %65, align 4, !tbaa !50
  %67 = getelementptr inbounds nuw i8, ptr %.06272.us, i64 24
  store float %66, ptr %67, align 4, !tbaa !50
  %68 = getelementptr inbounds nuw i8, ptr %.06569.us, i64 12
  %69 = load float, ptr %68, align 4, !tbaa !50
  %70 = getelementptr inbounds nuw i8, ptr %.06272.us, i64 28
  store float %69, ptr %70, align 4, !tbaa !50
  %71 = load float, ptr %.06470.us, align 4, !tbaa !50
  %72 = getelementptr inbounds nuw i8, ptr %.06272.us, i64 32
  store float %71, ptr %72, align 4, !tbaa !50
  %73 = getelementptr inbounds nuw i8, ptr %.06470.us, i64 4
  %74 = load float, ptr %73, align 4, !tbaa !50
  %75 = getelementptr inbounds nuw i8, ptr %.06272.us, i64 36
  store float %74, ptr %75, align 4, !tbaa !50
  %76 = getelementptr inbounds nuw i8, ptr %.06470.us, i64 8
  %77 = load float, ptr %76, align 4, !tbaa !50
  %78 = getelementptr inbounds nuw i8, ptr %.06272.us, i64 40
  store float %77, ptr %78, align 4, !tbaa !50
  %79 = getelementptr inbounds nuw i8, ptr %.06470.us, i64 12
  %80 = load float, ptr %79, align 4, !tbaa !50
  %81 = getelementptr inbounds nuw i8, ptr %.06272.us, i64 44
  store float %80, ptr %81, align 4, !tbaa !50
  %82 = load float, ptr %.06371.us, align 4, !tbaa !50
  %83 = getelementptr inbounds nuw i8, ptr %.06272.us, i64 48
  store float %82, ptr %83, align 4, !tbaa !50
  %84 = getelementptr inbounds nuw i8, ptr %.06371.us, i64 4
  %85 = load float, ptr %84, align 4, !tbaa !50
  %86 = getelementptr inbounds nuw i8, ptr %.06272.us, i64 52
  store float %85, ptr %86, align 4, !tbaa !50
  %87 = getelementptr inbounds nuw i8, ptr %.06371.us, i64 8
  %88 = load float, ptr %87, align 4, !tbaa !50
  %89 = getelementptr inbounds nuw i8, ptr %.06272.us, i64 56
  store float %88, ptr %89, align 4, !tbaa !50
  %90 = getelementptr inbounds nuw i8, ptr %.06371.us, i64 12
  %91 = load float, ptr %90, align 4, !tbaa !50
  %92 = getelementptr inbounds nuw i8, ptr %.06272.us, i64 60
  store float %91, ptr %92, align 4, !tbaa !50
  %93 = getelementptr inbounds nuw i8, ptr %.06668.us, i64 16
  %94 = getelementptr inbounds nuw i8, ptr %.06569.us, i64 16
  %95 = getelementptr inbounds nuw i8, ptr %.06470.us, i64 16
  %96 = getelementptr inbounds nuw i8, ptr %.06371.us, i64 16
  %97 = getelementptr inbounds nuw i8, ptr %.06272.us, i64 64
  %98 = add nuw nsw i32 %.073.us, 1
  %exitcond.not = icmp eq i32 %98, %32
  br i1 %exitcond.not, label %._crit_edge.us, label %49, !llvm.loop !65

._crit_edge.us:                                   ; preds = %49
  %indvars.iv.next = add nsw i64 %indvars.iv, 1
  %lftr.wideiv = trunc i64 %indvars.iv.next to i32
  %exitcond81.not = icmp eq i32 %35, %lftr.wideiv
  br i1 %exitcond81.not, label %._crit_edge78, label %.lr.ph.us

._crit_edge78:                                    ; preds = %._crit_edge.us, %.lr.ph77, %13
  call void @__kmpc_for_static_fini(ptr nonnull @1, i32 %15)
  call void @llvm.lifetime.end.p0(i64 4, ptr nonnull %10) #6
  call void @llvm.lifetime.end.p0(i64 4, ptr nonnull %9) #6
  call void @llvm.lifetime.end.p0(i64 4, ptr nonnull %8) #6
  call void @llvm.lifetime.end.p0(i64 4, ptr nonnull %7) #6
  br label %99

99:                                               ; preds = %._crit_edge78, %6
  ret void
}